target datalayout = "e-m:e-p270:32:32-p271:32:32-p272:64:64-i64:64-i128:128-f80:128-n8:16:32:64-S128"
target triple = "x86_64-pc-linux-gnu"

%struct.strbuf = type { i64, i64, ptr }
%struct.lock_file = type { ptr }
%struct.__va_list_tag = type { i32, i32, ptr, ptr }

@.str.8 = private unnamed_addr constant [20 x i8] c"could not read '%s'\00", align 1
@.str.46 = private unnamed_addr constant [1 x i8] zeroinitializer, align 1
@git_gettext_enabled = external global i32, align 4
@.str.311 = private unnamed_addr constant [24 x i8] c"could not write to '%s'\00", align 1
@.str.312 = private unnamed_addr constant [24 x i8] c"failed to finalize '%s'\00", align 1
@__const.safe_append.buf = private unnamed_addr constant %struct.strbuf { i64 0, i64 0, ptr @strbuf_slopbuf }, align 8

; Function Attrs: inlinehint nounwind uwtable
define internal i64 @strbuf_avail(ptr noundef %0) #1 {
  %2 = alloca ptr, align 8
  store ptr %0, ptr %2, align 8, !tbaa !41
  %3 = load ptr, ptr %2, align 8, !tbaa !41
  %4 = getelementptr inbounds nuw %struct.strbuf, ptr %3, i32 0, i32 0
  %5 = load i64, ptr %4, align 8, !tbaa !44
  %6 = icmp ne i64 %5, 0
  br i1 %6, label %7, label %16

7:                                                ; preds = %1
  %8 = load ptr, ptr %2, align 8, !tbaa !41
  %9 = getelementptr inbounds nuw %struct.strbuf, ptr %8, i32 0, i32 0
  %10 = load i64, ptr %9, align 8, !tbaa !44
  %11 = load ptr, ptr %2, align 8, !tbaa !41
  %12 = getelementptr inbounds nuw %struct.strbuf, ptr %11, i32 0, i32 1
  %13 = load i64, ptr %12, align 8, !tbaa !45
  %14 = sub i64 %10, %13
  %15 = sub i64 %14, 1
  br label %17

16:                                               ; preds = %1
  br label %17

17:                                               ; preds = %16, %7
  %18 = phi i64 [ %15, %7 ], [ 0, %16 ]
  ret i64 %18
}

; Function Attrs: inlinehint nounwind uwtable
define internal void @strbuf_addch(ptr noundef %0, i32 noundef %1) #1 {
  %3 = alloca ptr, align 8
  %4 = alloca i32, align 4
  store ptr %0, ptr %3, align 8, !tbaa !41
  store i32 %1, ptr %4, align 4, !tbaa !29
  %5 = load ptr, ptr %3, align 8, !tbaa !41
  %6 = call i64 @strbuf_avail(ptr noundef %5)
  %7 = icmp ne i64 %6, 0
  br i1 %7, label %10, label %8

8:                                                ; preds = %2
  %9 = load ptr, ptr %3, align 8, !tbaa !41
  call void @strbuf_grow(ptr noundef %9, i64 noundef 1)
  br label %10

10:                                               ; preds = %8, %2
  %11 = load i32, ptr %4, align 4, !tbaa !29
  %12 = trunc i32 %11 to i8
  %13 = load ptr, ptr %3, align 8, !tbaa !41
  %14 = getelementptr inbounds nuw %struct.strbuf, ptr %13, i32 0, i32 2
  %15 = load ptr, ptr %14, align 8, !tbaa !37
  %16 = load ptr, ptr %3, align 8, !tbaa !41
  %17 = getelementptr inbounds nuw %struct.strbuf, ptr %16, i32 0, i32 1
  %18 = load i64, ptr %17, align 8, !tbaa !45
  %19 = add i64 %18, 1
  store i64 %19, ptr %17, align 8, !tbaa !45
  %20 = getelementptr inbounds nuw i8, ptr %15, i64 %18
  store i8 %12, ptr %20, align 1, !tbaa !30
  %21 = load ptr, ptr %3, align 8, !tbaa !41
  %22 = getelementptr inbounds nuw %struct.strbuf, ptr %21, i32 0, i32 2
  %23 = load ptr, ptr %22, align 8, !tbaa !37
  %24 = load ptr, ptr %3, align 8, !tbaa !41
  %25 = getelementptr inbounds nuw %struct.strbuf, ptr %24, i32 0, i32 1
  %26 = load i64, ptr %25, align 8, !tbaa !45
  %27 = getelementptr inbounds nuw i8, ptr %23, i64 %26
  store i8 0, ptr %27, align 1, !tbaa !30
  ret void
}

; Function Attrs: inlinehint nounwind uwtable
define internal i32 @hold_lock_file_for_update_timeout(ptr noundef %0, ptr noundef %1, i32 noundef %2, i64 noundef %3) #1 {
  %5 = alloca ptr, align 8
  %6 = alloca ptr, align 8
  %7 = alloca i32, align 4
  %8 = alloca i64, align 8
  store ptr %0, ptr %5, align 8, !tbaa !327
  store ptr %1, ptr %6, align 8, !tbaa !4
  store i32 %2, ptr %7, align 4, !tbaa !29
  store i64 %3, ptr %8, align 8, !tbaa !43
  %9 = load ptr, ptr %5, align 8, !tbaa !327
  %10 = load ptr, ptr %6, align 8, !tbaa !4
  %11 = load i32, ptr %7, align 4, !tbaa !29
  %12 = load i64, ptr %8, align 8, !tbaa !43
  %13 = call i32 @hold_lock_file_for_update_timeout_mode(ptr noundef %9, ptr noundef %10, i32 noundef %11, i64 noundef %12, i32 noundef 438)
  ret i32 %13
}

; Function Attrs: inlinehint nounwind uwtable
define internal void @strbuf_complete(ptr noundef %0, i8 noundef signext %1) #1 {
  %3 = alloca ptr, align 8
  %4 = alloca i8, align 1
  store ptr %0, ptr %3, align 8, !tbaa !41
  store i8 %1, ptr %4, align 1, !tbaa !30
  %5 = load ptr, ptr %3, align 8, !tbaa !41
  %6 = getelementptr inbounds nuw %struct.strbuf, ptr %5, i32 0, i32 1
  %7 = load i64, ptr %6, align 8, !tbaa !45
  %8 = icmp ne i64 %7, 0
  br i1 %8, label %9, label %27

9:                                                ; preds = %2
  %10 = load ptr, ptr %3, align 8, !tbaa !41
  %11 = getelementptr inbounds nuw %struct.strbuf, ptr %10, i32 0, i32 2
  %12 = load ptr, ptr %11, align 8, !tbaa !37
  %13 = load ptr, ptr %3, align 8, !tbaa !41
  %14 = getelementptr inbounds nuw %struct.strbuf, ptr %13, i32 0, i32 1
  %15 = load i64, ptr %14, align 8, !tbaa !45
  %16 = sub i64 %15, 1
  %17 = getelementptr inbounds nuw i8, ptr %12, i64 %16
  %18 = load i8, ptr %17, align 1, !tbaa !30
  %19 = sext i8 %18 to i32
  %20 = load i8, ptr %4, align 1, !tbaa !30
  %21 = sext i8 %20 to i32
  %22 = icmp ne i32 %19, %21
  br i1 %22, label %23, label %27

23:                                               ; preds = %9
  %24 = load ptr, ptr %3, align 8, !tbaa !41
  %25 = load i8, ptr %4, align 1, !tbaa !30
  %26 = sext i8 %25 to i32
  call void @strbuf_addch(ptr noundef %24, i32 noundef %26)
  br label %27

27:                                               ; preds = %23, %9, %2
  ret void
}

; Function Attrs: inlinehint nounwind uwtable
define internal i32 @rollback_lock_file(ptr noundef %0) #1 {
  %2 = alloca ptr, align 8
  store ptr %0, ptr %2, align 8, !tbaa !327
  %3 = load ptr, ptr %2, align 8, !tbaa !327
  %4 = getelementptr inbounds nuw %struct.lock_file, ptr %3, i32 0, i32 0
  %5 = call i32 @delete_tempfile(ptr noundef %4)
  ret i32 %5
}

; Function Attrs: inlinehint nounwind uwtable
define internal i32 @const_error() #1 {
  ret i32 -1
}

; Function Attrs: inlinehint nounwind uwtable
define internal ptr @_(ptr noundef %0) #1 {
  %2 = alloca ptr, align 8
  %3 = alloca ptr, align 8
  store ptr %0, ptr %3, align 8, !tbaa !4
  %4 = load ptr, ptr %3, align 8, !tbaa !4
  %5 = load i8, ptr %4, align 1, !tbaa !30
  %6 = icmp ne i8 %5, 0
  br i1 %6, label %8, label %7

7:                                                ; preds = %1
  store ptr @.str.46, ptr %2, align 8
  br label %16

8:                                                ; preds = %1
  %9 = load i32, ptr @git_gettext_enabled, align 4, !tbaa !29
  %10 = icmp ne i32 %9, 0
  br i1 %10, label %13, label %11

11:                                               ; preds = %8
  %12 = load ptr, ptr %3, align 8, !tbaa !4
  store ptr %12, ptr %2, align 8
  br label %16

13:                                               ; preds = %8
  %14 = load ptr, ptr %3, align 8, !tbaa !4
  %15 = call ptr @dcgettext(ptr noundef null, ptr noundef %14, i32 noundef 5) #11
  store ptr %15, ptr %2, align 8
  br label %16

16:                                               ; preds = %13, %11, %7
  %17 = load ptr, ptr %2, align 8
  ret ptr %17
}

; Function Attrs: inlinehint nounwind uwtable
define internal i32 @hold_lock_file_for_update(ptr noundef %0, ptr noundef %1, i32 noundef %2) #1 {
  %4 = alloca ptr, align 8
  %5 = alloca ptr, align 8
  %6 = alloca i32, align 4
  store ptr %0, ptr %4, align 8, !tbaa !327
  store ptr %1, ptr %5, align 8, !tbaa !4
  store i32 %2, ptr %6, align 4, !tbaa !29
  %7 = load ptr, ptr %4, align 8, !tbaa !327
  %8 = load ptr, ptr %5, align 8, !tbaa !4
  %9 = load i32, ptr %6, align 4, !tbaa !29
  %10 = call i32 @hold_lock_file_for_update_timeout(ptr noundef %7, ptr noundef %8, i32 noundef %9, i64 noundef 0)
  ret i32 %10
}

; Function Attrs: nounwind uwtable
define internal i32 @safe_append(ptr noundef %0, ptr noundef %1, ...) #0 {
  %3 = alloca i32, align 4
  %4 = alloca ptr, align 8
  %5 = alloca ptr, align 8
  %6 = alloca [1 x %struct.__va_list_tag], align 16
  %7 = alloca %struct.lock_file, align 8
  %8 = alloca i32, align 4
  %9 = alloca %struct.strbuf, align 8
  %10 = alloca i32, align 4
  store ptr %0, ptr %4, align 8, !tbaa !4
  store ptr %1, ptr %5, align 8, !tbaa !4
  call void @llvm.lifetime.start.p0(i64 24, ptr %6) #11
  call void @llvm.lifetime.start.p0(i64 8, ptr %7) #11
  call void @llvm.memset.p0.i64(ptr align 8 %7, i8 0, i64 8, i1 false)
  call void @llvm.lifetime.start.p0(i64 4, ptr %8) #11
  %11 = load ptr, ptr %4, align 8, !tbaa !4
  %12 = call i32 @hold_lock_file_for_update(ptr noundef %7, ptr noundef %11, i32 noundef 4)
  store i32 %12, ptr %8, align 4, !tbaa !29
  call void @llvm.lifetime.start.p0(i64 24, ptr %9) #11
  call void @llvm.memcpy.p0.p0.i64(ptr align 8 %9, ptr align 8 @__const.safe_append.buf, i64 24, i1 false)
  %13 = load i32, ptr %8, align 4, !tbaa !29
  %14 = icmp slt i32 %13, 0
  br i1 %14, label %15, label %16

15:                                               ; preds = %2
  store i32 -1, ptr %3, align 4
  store i32 1, ptr %10, align 4
  br label %57

16:                                               ; preds = %2
  %17 = load ptr, ptr %4, align 8, !tbaa !4
  %18 = call i64 @strbuf_read_file(ptr noundef %9, ptr noundef %17, i64 noundef 0)
  %19 = icmp slt i64 %18, 0
  br i1 %19, label %20, label %30

20:                                               ; preds = %16
  %21 = call ptr @__errno_location() #14
  %22 = load i32, ptr %21, align 4, !tbaa !29
  %23 = icmp ne i32 %22, 2
  br i1 %23, label %24, label %30

24:                                               ; preds = %20
  %25 = call ptr @_(ptr noundef @.str.8)
  %26 = load ptr, ptr %4, align 8, !tbaa !4
  %27 = call i32 (ptr, ...) @error_errno(ptr noundef %25, ptr noundef %26)
  %28 = call i32 @const_error()
  %29 = call i32 @rollback_lock_file(ptr noundef %7)
  store i32 -1, ptr %3, align 4
  store i32 1, ptr %10, align 4
  br label %57

30:                                               ; preds = %20, %16
  call void @strbuf_complete(ptr noundef %9, i8 noundef signext 10)
  %31 = getelementptr inbounds [1 x %struct.__va_list_tag], ptr %6, i64 0, i64 0
  call void @llvm.va_start.p0(ptr %31)
  %32 = load ptr, ptr %5, align 8, !tbaa !4
  %33 = getelementptr inbounds [1 x %struct.__va_list_tag], ptr %6, i64 0, i64 0
  call void @strbuf_vaddf(ptr noundef %9, ptr noundef %32, ptr noundef %33)
  %34 = getelementptr inbounds [1 x %struct.__va_list_tag], ptr %6, i64 0, i64 0
  call void @llvm.va_end.p0(ptr %34)
  %35 = load i32, ptr %8, align 4, !tbaa !29
  %36 = getelementptr inbounds nuw %struct.strbuf, ptr %9, i32 0, i32 2
  %37 = load ptr, ptr %36, align 8, !tbaa !37
  %38 = getelementptr inbounds nuw %struct.strbuf, ptr %9, i32 0, i32 1
  %39 = load i64, ptr %38, align 8, !tbaa !45
  %40 = call i64 @write_in_full(i32 noundef %35, ptr noundef %37, i64 noundef %39)
  %41 = icmp slt i64 %40, 0
  br i1 %41, label %42, label %48

42:                                               ; preds = %30
  %43 = call ptr @_(ptr noundef @.str.311)
  %44 = load ptr, ptr %4, align 8, !tbaa !4
  %45 = call i32 (ptr, ...) @error_errno(ptr noundef %43, ptr noundef %44)
  %46 = call i32 @const_error()
  call void @strbuf_release(ptr noundef %9)
  %47 = call i32 @rollback_lock_file(ptr noundef %7)
  store i32 -1, ptr %3, align 4
  store i32 1, ptr %10, align 4
  br label %57

48:                                               ; preds = %30
  %49 = call i32 @commit_lock_file(ptr noundef %7)
  %50 = icmp slt i32 %49, 0
  br i1 %50, label %51, label %56

51:                                               ; preds = %48
  call void @strbuf_release(ptr noundef %9)
  %52 = call ptr @_(ptr noundef @.str.312)
  %53 = load ptr, ptr %4, align 8, !tbaa !4
  %54 = call i32 (ptr, ...) @error(ptr noundef %52, ptr noundef %53)
  %55 = call i32 @const_error()
  store i32 %55, ptr %3, align 4
  store i32 1, ptr %10, align 4
  br label %57

56:                                               ; preds = %48
  call void @strbuf_release(ptr noundef %9)
  store i32 0, ptr %3, align 4
  store i32 1, ptr %10, align 4
  br label %57

57:                                               ; preds = %56, %51, %42, %24, %15
  call void @llvm.lifetime.end.p0(i64 24, ptr %9) #11
  call void @llvm.lifetime.end.p0(i64 4, ptr %8) #11
  call void @llvm.lifetime.end.p0(i64 8, ptr %7) #11
  call void @llvm.lifetime.end.p0(i64 24, ptr %6) #11
  %58 = load i32, ptr %3, align 4
  ret i32 %58
}