; Function Attrs: nounwind uwtable
define internal range(i32 -1, 1) i32 @safe_append(ptr noundef %0, ptr readnone captures(none) %1, ...) unnamed_addr #0 {
  %3 = alloca [1 x %struct.__va_list_tag], align 16
  %4 = alloca %struct.lock_file, align 8
  %5 = alloca %struct.strbuf, align 8
  call void @llvm.lifetime.start.p0(i64 24, ptr nonnull %3) #20
  call void @llvm.lifetime.start.p0(i64 8, ptr nonnull %4) #20
  store i64 0, ptr %4, align 8
  %6 = call i32 @hold_lock_file_for_update_timeout_mode(ptr noundef nonnull %4, ptr noundef %0, i32 noundef range(i32 0, 5) 4, i64 noundef 0, i32 noundef 438) #20
  call void @llvm.lifetime.start.p0(i64 24, ptr nonnull %5) #20
  call void @llvm.memcpy.p0.p0.i64(ptr noundef nonnull align 8 dereferenceable(24) %5, ptr noundef nonnull align 8 dereferenceable(24) @__const.make_script_with_merges.label_from_message, i64 24, i1 false)
  %7 = icmp slt i32 %6, 0
  br i1 %7, label %56, label %8

8:                                                ; preds = %2
  %9 = call i64 @strbuf_read_file(ptr noundef nonnull %5, ptr noundef %0, i64 noundef 0) #20
  %10 = icmp slt i64 %9, 0
  br i1 %10, label %11, label %20

11:                                               ; preds = %8
  %12 = tail call ptr @__errno_location() #23
  %13 = load i32, ptr %12, align 4, !tbaa !21
  %.not = icmp eq i32 %13, 2
  br i1 %.not, label %20, label %14

14:                                               ; preds = %11
  %15 = load i32, ptr @git_gettext_enabled, align 4, !tbaa !21
  %.not4.i = icmp eq i32 %15, 0
  br i1 %.not4.i, label %_.exit, label %16

16:                                               ; preds = %14
  %17 = call ptr @dcgettext(ptr noundef null, ptr noundef nonnull @.str.8, i32 noundef 5) #20
  br label %_.exit

_.exit:                                           ; preds = %14, %16
  %.0.i = phi ptr [ %17, %16 ], [ @.str.8, %14 ]
  %18 = call i32 (ptr, ...) @error_errno(ptr noundef %.0.i, ptr noundef %0) #20
  %19 = call i32 @delete_tempfile(ptr noundef nonnull %4) #20
  br label %56

20:                                               ; preds = %11, %8
  %21 = getelementptr inbounds nuw i8, ptr %5, i64 8
  %22 = load i64, ptr %21, align 8, !tbaa !33
  %.not.i = icmp eq i64 %22, 0
  br i1 %.not.i, label %strbuf_complete.exit, label %23

23:                                               ; preds = %20
  %24 = getelementptr inbounds nuw i8, ptr %5, i64 16
  %25 = load ptr, ptr %24, align 8, !tbaa !31
  %26 = getelementptr i8, ptr %25, i64 %22
  %27 = getelementptr i8, ptr %26, i64 -1
  %28 = load i8, ptr %27, align 1, !tbaa !24
  %.not6.i = icmp eq i8 %28, 10
  br i1 %.not6.i, label %strbuf_complete.exit, label %29

29:                                               ; preds = %23
  %30 = load i64, ptr %5, align 8, !tbaa !34
  %.not.i.i.i = icmp eq i64 %30, 0
  %.neg.i.i = add i64 %22, 1
  %.not.i.i = icmp eq i64 %30, %.neg.i.i
  %or.cond.i = or i1 %.not.i.i.i, %.not.i.i
  br i1 %or.cond.i, label %strbuf_avail.exit.thread.i.i, label %strbuf_addch.exit.i

strbuf_avail.exit.thread.i.i:                     ; preds = %29
  call void @strbuf_grow(ptr noundef nonnull %5, i64 noundef 1) #20
  %.pre.i.i = load i64, ptr %21, align 8, !tbaa !33
  %.pre7.i.i = add i64 %.pre.i.i, 1
  %.pre.i = load ptr, ptr %24, align 8, !tbaa !31
  br label %strbuf_addch.exit.i

strbuf_addch.exit.i:                              ; preds = %strbuf_avail.exit.thread.i.i, %29
  %31 = phi ptr [ %.pre.i, %strbuf_avail.exit.thread.i.i ], [ %25, %29 ]
  %.pre-phi.i.i = phi i64 [ %.pre7.i.i, %strbuf_avail.exit.thread.i.i ], [ %.neg.i.i, %29 ]
  %32 = phi i64 [ %.pre.i.i, %strbuf_avail.exit.thread.i.i ], [ %22, %29 ]
  store i64 %.pre-phi.i.i, ptr %21, align 8, !tbaa !33
  %33 = getelementptr inbounds nuw i8, ptr %31, i64 %32
  store i8 10, ptr %33, align 1, !tbaa !24
  %34 = load ptr, ptr %24, align 8, !tbaa !31
  %35 = load i64, ptr %21, align 8, !tbaa !33
  %36 = getelementptr inbounds nuw i8, ptr %34, i64 %35
  store i8 0, ptr %36, align 1, !tbaa !24
  br label %strbuf_complete.exit

strbuf_complete.exit:                             ; preds = %20, %23, %strbuf_addch.exit.i
  call void @llvm.va_start.p0(ptr nonnull %3)
  call void @strbuf_vaddf(ptr noundef nonnull %5, ptr noundef nonnull @.str.56, ptr noundef nonnull %3) #20
  call void @llvm.va_end.p0(ptr nonnull %3)
  %37 = getelementptr inbounds nuw i8, ptr %5, i64 16
  %38 = load ptr, ptr %37, align 8, !tbaa !31
  %39 = load i64, ptr %21, align 8, !tbaa !33
  %40 = call i64 @write_in_full(i32 noundef %6, ptr noundef %38, i64 noundef %39) #20
  %41 = icmp slt i64 %40, 0
  br i1 %41, label %42, label %48

42:                                               ; preds = %strbuf_complete.exit
  %43 = load i32, ptr @git_gettext_enabled, align 4, !tbaa !21
  %.not4.i9 = icmp eq i32 %43, 0
  br i1 %.not4.i9, label %_.exit11, label %44

44:                                               ; preds = %42
  %45 = call ptr @dcgettext(ptr noundef null, ptr noundef nonnull @.str.311, i32 noundef 5) #20
  br label %_.exit11

_.exit11:                                         ; preds = %42, %44
  %.0.i10 = phi ptr [ %45, %44 ], [ @.str.311, %42 ]
  %46 = call i32 (ptr, ...) @error_errno(ptr noundef %.0.i10, ptr noundef %0) #20
  call void @strbuf_release(ptr noundef nonnull %5) #20
  %47 = call i32 @delete_tempfile(ptr noundef nonnull %4) #20
  br label %56

48:                                               ; preds = %strbuf_complete.exit
  %49 = call i32 @commit_lock_file(ptr noundef nonnull %4) #20
  %50 = icmp slt i32 %49, 0
  call void @strbuf_release(ptr noundef nonnull %5) #20
  br i1 %50, label %51, label %56

51:                                               ; preds = %48
  %52 = load i32, ptr @git_gettext_enabled, align 4, !tbaa !21
  %.not4.i12 = icmp eq i32 %52, 0
  br i1 %.not4.i12, label %_.exit14, label %53

53:                                               ; preds = %51
  %54 = call ptr @dcgettext(ptr noundef null, ptr noundef nonnull @.str.312, i32 noundef 5) #20
  br label %_.exit14

_.exit14:                                         ; preds = %51, %53
  %.0.i13 = phi ptr [ %54, %53 ], [ @.str.312, %51 ]
  %55 = call i32 (ptr, ...) @error(ptr noundef %.0.i13, ptr noundef %0) #20
  br label %56

56:                                               ; preds = %48, %2, %_.exit14, %_.exit11, %_.exit
  %.0 = phi i32 [ -1, %_.exit ], [ -1, %_.exit11 ], [ -1, %_.exit14 ], [ -1, %2 ], [ 0, %48 ]
  call void @llvm.lifetime.end.p0(i64 24, ptr nonnull %5) #20
  call void @llvm.lifetime.end.p0(i64 8, ptr nonnull %4) #20
  call void @llvm.lifetime.end.p0(i64 24, ptr nonnull %3) #20
  ret i32 %.0
}